target datalayout = "e-m:e-p270:32:32-p271:32:32-p272:64:64-i64:64-i128:128-f80:128-n8:16:32:64-S128"
target triple = "x86_64-pc-linux-gnu"

%struct.AVChannelLayout = type { i32, i32, %union.anon.1, ptr }
%union.anon.1 = type { i64 }
%struct.AVRational = type { i32, i32 }
%struct.AVFilterContext = type { ptr, ptr, ptr, ptr, ptr, i32, ptr, ptr, i32, ptr, ptr, i32, i32, ptr, ptr, ptr, ptr, i32, ptr, i32, i32 }
%struct.ColorizeContext = type { ptr, float, float, float, float, i32, [3 x i32], [4 x i32], [4 x i32], [2 x ptr] }
%struct.AVFrame = type { [8 x ptr], [8 x i32], ptr, i32, i32, i32, i32, i32, %struct.AVRational, i64, i64, %struct.AVRational, i32, ptr, i32, i32, [8 x ptr], ptr, i32, ptr, i32, i32, i32, i32, i32, i32, i32, i64, ptr, i32, ptr, ptr, i64, i64, i64, i64, ptr, %struct.AVChannelLayout, i64 }

; Function Attrs: nounwind uwtable
define internal i32 @colorize_slice8(ptr noundef %0, ptr noundef %1, i32 noundef %2, i32 noundef %3) #1 {
  %5 = alloca ptr, align 8
  %6 = alloca ptr, align 8
  %7 = alloca i32, align 4
  %8 = alloca i32, align 4
  %9 = alloca ptr, align 8
  %10 = alloca ptr, align 8
  %11 = alloca i32, align 4
  %12 = alloca i32, align 4
  %13 = alloca i32, align 4
  %14 = alloca i32, align 4
  %15 = alloca i64, align 8
  %16 = alloca i64, align 8
  %17 = alloca ptr, align 8
  %18 = alloca ptr, align 8
  %19 = alloca i32, align 4
  %20 = alloca i32, align 4
  %21 = alloca i32, align 4
  %22 = alloca i32, align 4
  %23 = alloca i32, align 4
  store ptr %0, ptr %5, align 8, !tbaa !23
  store ptr %1, ptr %6, align 8, !tbaa !56
  store i32 %2, ptr %7, align 4, !tbaa !43
  store i32 %3, ptr %8, align 4, !tbaa !43
  call void @llvm.lifetime.start.p0(i64 8, ptr %9) #8
  %24 = load ptr, ptr %5, align 8, !tbaa !23
  %25 = getelementptr inbounds nuw %struct.AVFilterContext, ptr %24, i32 0, i32 9
  %26 = load ptr, ptr %25, align 8, !tbaa !24
  store ptr %26, ptr %9, align 8, !tbaa !34
  call void @llvm.lifetime.start.p0(i64 8, ptr %10) #8
  %27 = load ptr, ptr %6, align 8, !tbaa !56
  store ptr %27, ptr %10, align 8, !tbaa !9
  call void @llvm.lifetime.start.p0(i64 4, ptr %11) #8
  %28 = load ptr, ptr %9, align 8, !tbaa !34
  %29 = getelementptr inbounds nuw %struct.ColorizeContext, ptr %28, i32 0, i32 7
  %30 = getelementptr inbounds [4 x i32], ptr %29, i64 0, i64 1
  %31 = load i32, ptr %30, align 4, !tbaa !43
  store i32 %31, ptr %11, align 4, !tbaa !43
  call void @llvm.lifetime.start.p0(i64 4, ptr %12) #8
  %32 = load ptr, ptr %9, align 8, !tbaa !34
  %33 = getelementptr inbounds nuw %struct.ColorizeContext, ptr %32, i32 0, i32 8
  %34 = getelementptr inbounds [4 x i32], ptr %33, i64 0, i64 1
  %35 = load i32, ptr %34, align 4, !tbaa !43
  store i32 %35, ptr %12, align 4, !tbaa !43
  call void @llvm.lifetime.start.p0(i64 4, ptr %13) #8
  %36 = load i32, ptr %12, align 4, !tbaa !43
  %37 = load i32, ptr %7, align 4, !tbaa !43
  %38 = mul nsw i32 %36, %37
  %39 = load i32, ptr %8, align 4, !tbaa !43
  %40 = sdiv i32 %38, %39
  store i32 %40, ptr %13, align 4, !tbaa !43
  call void @llvm.lifetime.start.p0(i64 4, ptr %14) #8
  %41 = load i32, ptr %12, align 4, !tbaa !43
  %42 = load i32, ptr %7, align 4, !tbaa !43
  %43 = add nsw i32 %42, 1
  %44 = mul nsw i32 %41, %43
  %45 = load i32, ptr %8, align 4, !tbaa !43
  %46 = sdiv i32 %44, %45
  store i32 %46, ptr %14, align 4, !tbaa !43
  call void @llvm.lifetime.start.p0(i64 8, ptr %15) #8
  %47 = load ptr, ptr %10, align 8, !tbaa !9
  %48 = getelementptr inbounds nuw %struct.AVFrame, ptr %47, i32 0, i32 1
  %49 = getelementptr inbounds [8 x i32], ptr %48, i64 0, i64 1
  %50 = load i32, ptr %49, align 4, !tbaa !43
  %51 = sext i32 %50 to i64
  store i64 %51, ptr %15, align 8, !tbaa !61
  call void @llvm.lifetime.start.p0(i64 8, ptr %16) #8
  %52 = load ptr, ptr %10, align 8, !tbaa !9
  %53 = getelementptr inbounds nuw %struct.AVFrame, ptr %52, i32 0, i32 1
  %54 = getelementptr inbounds [8 x i32], ptr %53, i64 0, i64 2
  %55 = load i32, ptr %54, align 8, !tbaa !43
  %56 = sext i32 %55 to i64
  store i64 %56, ptr %16, align 8, !tbaa !61
  call void @llvm.lifetime.start.p0(i64 8, ptr %17) #8
  %57 = load ptr, ptr %10, align 8, !tbaa !9
  %58 = getelementptr inbounds nuw %struct.AVFrame, ptr %57, i32 0, i32 0
  %59 = getelementptr inbounds [8 x ptr], ptr %58, i64 0, i64 1
  %60 = load ptr, ptr %59, align 8, !tbaa !62
  %61 = load i32, ptr %13, align 4, !tbaa !43
  %62 = sext i32 %61 to i64
  %63 = load i64, ptr %15, align 8, !tbaa !61
  %64 = mul nsw i64 %62, %63
  %65 = getelementptr inbounds i8, ptr %60, i64 %64
  store ptr %65, ptr %17, align 8, !tbaa !62
  call void @llvm.lifetime.start.p0(i64 8, ptr %18) #8
  %66 = load ptr, ptr %10, align 8, !tbaa !9
  %67 = getelementptr inbounds nuw %struct.AVFrame, ptr %66, i32 0, i32 0
  %68 = getelementptr inbounds [8 x ptr], ptr %67, i64 0, i64 2
  %69 = load ptr, ptr %68, align 8, !tbaa !62
  %70 = load i32, ptr %13, align 4, !tbaa !43
  %71 = sext i32 %70 to i64
  %72 = load i64, ptr %16, align 8, !tbaa !61
  %73 = mul nsw i64 %71, %72
  %74 = getelementptr inbounds i8, ptr %69, i64 %73
  store ptr %74, ptr %18, align 8, !tbaa !62
  call void @llvm.lifetime.start.p0(i64 4, ptr %19) #8
  %75 = load ptr, ptr %9, align 8, !tbaa !34
  %76 = getelementptr inbounds nuw %struct.ColorizeContext, ptr %75, i32 0, i32 6
  %77 = getelementptr inbounds [3 x i32], ptr %76, i64 0, i64 1
  %78 = load i32, ptr %77, align 4, !tbaa !43
  store i32 %78, ptr %19, align 4, !tbaa !43
  call void @llvm.lifetime.start.p0(i64 4, ptr %20) #8
  %79 = load ptr, ptr %9, align 8, !tbaa !34
  %80 = getelementptr inbounds nuw %struct.ColorizeContext, ptr %79, i32 0, i32 6
  %81 = getelementptr inbounds [3 x i32], ptr %80, i64 0, i64 2
  %82 = load i32, ptr %81, align 4, !tbaa !43
  store i32 %82, ptr %20, align 4, !tbaa !43
  call void @llvm.lifetime.start.p0(i64 4, ptr %21) #8
  %83 = load i32, ptr %13, align 4, !tbaa !43
  store i32 %83, ptr %21, align 4, !tbaa !43
  br label %84

84:                                               ; preds = %118, %4
  %85 = load i32, ptr %21, align 4, !tbaa !43
  %86 = load i32, ptr %14, align 4, !tbaa !43
  %87 = icmp slt i32 %85, %86
  br i1 %87, label %89, label %88

88:                                               ; preds = %84
  store i32 2, ptr %22, align 4
  call void @llvm.lifetime.end.p0(i64 4, ptr %21) #8
  br label %121

89:                                               ; preds = %84
  call void @llvm.lifetime.start.p0(i64 4, ptr %23) #8
  store i32 0, ptr %23, align 4, !tbaa !43
  br label %90

90:                                               ; preds = %108, %89
  %91 = load i32, ptr %23, align 4, !tbaa !43
  %92 = load i32, ptr %11, align 4, !tbaa !43
  %93 = icmp slt i32 %91, %92
  br i1 %93, label %95, label %94

94:                                               ; preds = %90
  store i32 5, ptr %22, align 4
  call void @llvm.lifetime.end.p0(i64 4, ptr %23) #8
  br label %111

95:                                               ; preds = %90
  %96 = load i32, ptr %19, align 4, !tbaa !43
  %97 = trunc i32 %96 to i8
  %98 = load ptr, ptr %17, align 8, !tbaa !62
  %99 = load i32, ptr %23, align 4, !tbaa !43
  %100 = sext i32 %99 to i64
  %101 = getelementptr inbounds i8, ptr %98, i64 %100
  store i8 %97, ptr %101, align 1, !tbaa !64
  %102 = load i32, ptr %20, align 4, !tbaa !43
  %103 = trunc i32 %102 to i8
  %104 = load ptr, ptr %18, align 8, !tbaa !62
  %105 = load i32, ptr %23, align 4, !tbaa !43
  %106 = sext i32 %105 to i64
  %107 = getelementptr inbounds i8, ptr %104, i64 %106
  store i8 %103, ptr %107, align 1, !tbaa !64
  br label %108

108:                                              ; preds = %95
  %109 = load i32, ptr %23, align 4, !tbaa !43
  %110 = add nsw i32 %109, 1
  store i32 %110, ptr %23, align 4, !tbaa !43
  br label %90, !llvm.loop !74

111:                                              ; preds = %94
  %112 = load i64, ptr %15, align 8, !tbaa !61
  %113 = load ptr, ptr %17, align 8, !tbaa !62
  %114 = getelementptr inbounds i8, ptr %113, i64 %112
  store ptr %114, ptr %17, align 8, !tbaa !62
  %115 = load i64, ptr %16, align 8, !tbaa !61
  %116 = load ptr, ptr %18, align 8, !tbaa !62
  %117 = getelementptr inbounds i8, ptr %116, i64 %115
  store ptr %117, ptr %18, align 8, !tbaa !62
  br label %118

118:                                              ; preds = %111
  %119 = load i32, ptr %21, align 4, !tbaa !43
  %120 = add nsw i32 %119, 1
  store i32 %120, ptr %21, align 4, !tbaa !43
  br label %84, !llvm.loop !75

121:                                              ; preds = %88
  store i32 1, ptr %22, align 4
  call void @llvm.lifetime.end.p0(i64 4, ptr %20) #8
  call void @llvm.lifetime.end.p0(i64 4, ptr %19) #8
  call void @llvm.lifetime.end.p0(i64 8, ptr %18) #8
  call void @llvm.lifetime.end.p0(i64 8, ptr %17) #8
  call void @llvm.lifetime.end.p0(i64 8, ptr %16) #8
  call void @llvm.lifetime.end.p0(i64 8, ptr %15) #8
  call void @llvm.lifetime.end.p0(i64 4, ptr %14) #8
  call void @llvm.lifetime.end.p0(i64 4, ptr %13) #8
  call void @llvm.lifetime.end.p0(i64 4, ptr %12) #8
  call void @llvm.lifetime.end.p0(i64 4, ptr %11) #8
  call void @llvm.lifetime.end.p0(i64 8, ptr %10) #8
  call void @llvm.lifetime.end.p0(i64 8, ptr %9) #8
  ret i32 0
}