; Function Attrs: nofree norecurse nosync nounwind memory(readwrite, inaccessiblemem: none) uwtable
define internal noundef i32 @colorize_slice8(ptr noundef readonly captures(none) %0, ptr noundef readonly captures(none) %1, i32 noundef %2, i32 noundef %3) #5 {
  %5 = getelementptr inbounds nuw i8, ptr %0, i64 72
  %6 = load ptr, ptr %5, align 8, !tbaa !19
  %7 = getelementptr inbounds nuw i8, ptr %6, i64 44
  %8 = load i32, ptr %7, align 4, !tbaa !35
  %9 = getelementptr inbounds nuw i8, ptr %6, i64 60
  %10 = load i32, ptr %9, align 4, !tbaa !35
  %11 = mul nsw i32 %10, %2
  %12 = sdiv i32 %11, %3
  %13 = add nsw i32 %2, 1
  %14 = mul nsw i32 %10, %13
  %15 = sdiv i32 %14, %3
  %16 = getelementptr inbounds nuw i8, ptr %1, i64 68
  %17 = load i32, ptr %16, align 4, !tbaa !35
  %18 = sext i32 %17 to i64
  %19 = getelementptr inbounds nuw i8, ptr %1, i64 72
  %20 = load i32, ptr %19, align 8, !tbaa !35
  %21 = sext i32 %20 to i64
  %22 = icmp slt i32 %12, %15
  br i1 %22, label %.preheader.lr.ph, label %._crit_edge43

.preheader.lr.ph:                                 ; preds = %4
  %23 = getelementptr inbounds nuw i8, ptr %6, i64 36
  %24 = load i32, ptr %23, align 4, !tbaa !35
  %25 = getelementptr inbounds nuw i8, ptr %6, i64 32
  %26 = load i32, ptr %25, align 4, !tbaa !35
  %27 = icmp sgt i32 %8, 0
  %28 = trunc i32 %26 to i8
  %29 = trunc i32 %24 to i8
  br i1 %27, label %.preheader.us.preheader, label %._crit_edge43

.preheader.us.preheader:                          ; preds = %.preheader.lr.ph
  %30 = getelementptr inbounds nuw i8, ptr %1, i64 8
  %31 = load ptr, ptr %30, align 8, !tbaa !50
  %32 = sext i32 %12 to i64
  %33 = mul nsw i64 %18, %32
  %34 = getelementptr inbounds i8, ptr %31, i64 %33
  %35 = getelementptr inbounds nuw i8, ptr %1, i64 16
  %36 = load ptr, ptr %35, align 8, !tbaa !50
  %37 = mul nsw i64 %21, %32
  %38 = getelementptr inbounds i8, ptr %36, i64 %37
  %wide.trip.count = zext nneg i32 %8 to i64
  br label %.preheader.us

.preheader.us:                                    ; preds = %.preheader.us.preheader, %._crit_edge.us
  %.03642.us = phi i32 [ %44, %._crit_edge.us ], [ %12, %.preheader.us.preheader ]
  %.03741.us = phi ptr [ %42, %._crit_edge.us ], [ %34, %.preheader.us.preheader ]
  %.03840.us = phi ptr [ %43, %._crit_edge.us ], [ %38, %.preheader.us.preheader ]
  br label %39

39:                                               ; preds = %.preheader.us, %39
  %indvars.iv = phi i64 [ 0, %.preheader.us ], [ %indvars.iv.next, %39 ]
  %40 = getelementptr inbounds nuw i8, ptr %.03741.us, i64 %indvars.iv
  store i8 %28, ptr %40, align 1, !tbaa !51
  %41 = getelementptr inbounds nuw i8, ptr %.03840.us, i64 %indvars.iv
  store i8 %29, ptr %41, align 1, !tbaa !51
  %indvars.iv.next = add nuw nsw i64 %indvars.iv, 1
  %exitcond.not = icmp eq i64 %indvars.iv.next, %wide.trip.count
  br i1 %exitcond.not, label %._crit_edge.us, label %39, !llvm.loop !59

._crit_edge.us:                                   ; preds = %39
  %42 = getelementptr inbounds i8, ptr %.03741.us, i64 %18
  %43 = getelementptr inbounds i8, ptr %.03840.us, i64 %21
  %44 = add nsw i32 %.03642.us, 1
  %exitcond46.not = icmp eq i32 %44, %15
  br i1 %exitcond46.not, label %._crit_edge43, label %.preheader.us, !llvm.loop !60

._crit_edge43:                                    ; preds = %._crit_edge.us, %.preheader.lr.ph, %4
  ret i32 0
}